; Function Attrs: mustprogress nounwind uwtable
define dso_local void @_ZN17ExpressionFuncallD2Ev(ptr noundef nonnull align 8 dereferenceable(32) %0) unnamed_addr #6 align 2 {
  store ptr getelementptr inbounds ({ [24 x ptr] }, ptr @_ZTV17ExpressionFuncall, i64 0, i32 0, i64 2), ptr %0, align 8
  %2 = getelementptr inbounds i8, ptr %0, i64 24
  %3 = load ptr, ptr %2, align 8
  %4 = icmp eq ptr %3, null
  br i1 %4, label %9, label %5

5:                                                ; preds = %1
  %6 = load ptr, ptr %3, align 8
  %7 = getelementptr inbounds i8, ptr %6, i64 8
  %8 = load ptr, ptr %7, align 8
  tail call void %8(ptr noundef nonnull align 8 dereferenceable(56) %3) #15
  br label %9

9:                                                ; preds = %5, %1
  tail call void @_ZN10ExpressionD2Ev(ptr noundef nonnull align 8 dereferenceable(24) %0) #15
  ret void
}